; Function Attrs: mustprogress uwtable
define void @_ZN8facebook5velox5cache7SsdFile9pinRegionEm(ptr noundef nonnull align 8 dereferenceable(381) %this, i64 noundef %offset) local_unnamed_addr #4 align 2 personality ptr @__gxx_personality_v0 {
entry:
  %mutex_ = getelementptr inbounds i8, ptr %this, i64 40
  %call1.i.i.i.i = tail call noundef i32 @pthread_rwlock_wrlock(ptr noundef nonnull %mutex_) #34
  %cmp.i.i.i = icmp eq i32 %call1.i.i.i.i, 35
  br i1 %cmp.i.i.i, label %if.then.i.i.i, label %invoke.cont

if.then.i.i.i:                                    ; preds = %entry
  tail call void @_ZSt20__throw_system_errori(i32 noundef 35) #35
  unreachable

invoke.cont:                                      ; preds = %entry
  %regionPins_.i = getelementptr inbounds i8, ptr %this, i64 192
  %0 = shl i64 %offset, 6
  %conv.i = ashr i64 %0, 32
  %1 = load ptr, ptr %regionPins_.i, align 8
  %add.ptr.i.i = getelementptr inbounds i32, ptr %1, i64 %conv.i
  %2 = load i32, ptr %add.ptr.i.i, align 4
  %inc.i = add nsw i32 %2, 1
  store i32 %inc.i, ptr %add.ptr.i.i, align 4
  %call1.i.i.i.i1 = tail call noundef i32 @pthread_rwlock_unlock(ptr noundef nonnull %mutex_) #34
  ret void
}